; Function Attrs: nounwind uwtable
define hidden noundef signext i8 @nfaExecMcClellan8_reportCurrent(ptr noundef readonly captures(none) %0, ptr noundef readonly captures(none) %1) local_unnamed_addr #0 {
  %3 = getelementptr inbounds nuw i8, ptr %0, i64 64
  %4 = getelementptr inbounds nuw i8, ptr %1, i64 88
  %5 = load ptr, ptr %4, align 8
  %6 = getelementptr inbounds nuw i8, ptr %1, i64 96
  %7 = load ptr, ptr %6, align 8
  %8 = getelementptr inbounds nuw i8, ptr %1, i64 16
  %9 = load ptr, ptr %8, align 8
  %10 = load i8, ptr %9, align 1
  %11 = getelementptr inbounds nuw i8, ptr %1, i64 32
  %12 = load i64, ptr %11, align 8
  %13 = getelementptr inbounds nuw i8, ptr %1, i64 8
  %14 = load i32, ptr %13, align 8
  %15 = zext i32 %14 to i64
  %.idx.i = mul nuw nsw i64 %15, 24
  %16 = getelementptr i8, ptr %1, i64 112
  %17 = getelementptr i8, ptr %16, i64 %.idx.i
  %18 = load i64, ptr %17, align 8
  %19 = add i64 %18, %12
  %20 = getelementptr inbounds nuw i8, ptr %0, i64 90
  %21 = load i16, ptr %20, align 2
  %22 = zext i8 %10 to i16
  %.not = icmp ugt i16 %21, %22
  br i1 %.not, label %doComplexReport.exit, label %23

23:                                               ; preds = %2
  %24 = getelementptr inbounds nuw i8, ptr %0, i64 97
  %25 = load i8, ptr %24, align 1
  %26 = and i8 %25, 1
  %.not17 = icmp eq i8 %26, 0
  br i1 %.not17, label %30, label %27

27:                                               ; preds = %23
  %28 = getelementptr inbounds nuw i8, ptr %0, i64 356
  %29 = load i32, ptr %28, align 4
  br label %doComplexReport.exit.sink.split

30:                                               ; preds = %23
  %31 = icmp eq i8 %10, 0
  br i1 %31, label %doComplexReport.exit.sink.split, label %32

32:                                               ; preds = %30
  %33 = getelementptr inbounds nuw i8, ptr %0, i64 76
  %34 = load i32, ptr %33, align 4
  %35 = zext i32 %34 to i64
  %36 = getelementptr inbounds nuw i8, ptr %0, i64 %35
  %37 = zext i8 %10 to i64
  %38 = getelementptr inbounds nuw %struct.mstate_aux, ptr %36, i64 %37
  %39 = load i32, ptr %38, align 4
  %40 = zext i32 %39 to i64
  %41 = getelementptr inbounds nuw i8, ptr %3, i64 %40
  %42 = getelementptr inbounds i8, ptr %41, i64 -64
  %43 = load i32, ptr %42, align 4
  %44 = getelementptr inbounds i8, ptr %41, i64 -60
  switch i32 %43, label %.lr.ph.preheader [
    i32 1, label %45
    i32 0, label %doComplexReport.exit
  ]

.lr.ph.preheader:                                 ; preds = %32
  %wide.trip.count = zext i32 %43 to i64
  br label %.lr.ph

45:                                               ; preds = %32
  %46 = load i32, ptr %44, align 4
  br label %doComplexReport.exit.sink.split

.lr.ph:                                           ; preds = %.lr.ph, %.lr.ph.preheader
  %indvars.iv = phi i64 [ 0, %.lr.ph.preheader ], [ %indvars.iv.next, %.lr.ph ]
  %47 = getelementptr inbounds nuw [0 x i32], ptr %44, i64 0, i64 %indvars.iv
  %48 = load i32, ptr %47, align 4
  %49 = tail call i32 %5(i64 noundef 0, i64 noundef %19, i32 noundef %48, ptr noundef %7) #15
  %50 = icmp eq i32 %49, 0
  %indvars.iv.next = add nuw nsw i64 %indvars.iv, 1
  %exitcond.not = icmp eq i64 %indvars.iv.next, %wide.trip.count
  %or.cond = select i1 %50, i1 true, i1 %exitcond.not
  br i1 %or.cond, label %doComplexReport.exit, label %.lr.ph

doComplexReport.exit.sink.split:                  ; preds = %30, %27, %45
  %.sink = phi i32 [ %46, %45 ], [ %29, %27 ], [ 0, %30 ]
  %51 = tail call i32 %5(i64 noundef 0, i64 noundef %19, i32 noundef %.sink, ptr noundef %7) #15
  br label %doComplexReport.exit

doComplexReport.exit:                             ; preds = %.lr.ph, %doComplexReport.exit.sink.split, %32, %2
  ret i8 0
}